target datalayout = "e-m:e-p270:32:32-p271:32:32-p272:64:64-i64:64-i128:128-f80:128-n8:16:32:64-S128"
target triple = "x86_64-unknown-linux-gnu"

%"class.std::fpos" = type { i64, %struct.__mbstate_t }
%struct.__mbstate_t = type { i32, %union.anon.437 }
%union.anon.437 = type { i32 }
%"class.facebook::velox::OutputStream" = type { ptr, ptr }
%"class.facebook::velox::serializer::presto::(anonymous namespace)::CountingOutputStream" = type { %"class.facebook::velox::OutputStream", i64, %"class.std::fpos" }

; Function Attrs: mustprogress nounwind uwtable
define linkonce_odr noundef i64 @_ZNKSt4fposI11__mbstate_tEcvlEv(ptr noundef nonnull align 8 dereferenceable(16) %this) #1 comdat align 2 {
entry:
  %this.addr = alloca ptr, align 8
  store ptr %this, ptr %this.addr, align 8
  %this1 = load ptr, ptr %this.addr, align 8
  %_M_off = getelementptr inbounds %"class.std::fpos", ptr %this1, i32 0, i32 0
  %0 = load i64, ptr %_M_off, align 8
  ret i64 %0
}

; Function Attrs: mustprogress nounwind uwtable
define linkonce_odr noundef nonnull align 8 dereferenceable(16) ptr @_ZNSt4fposI11__mbstate_tEpLEl(ptr noundef nonnull align 8 dereferenceable(16) %this, i64 noundef %__off) #1 comdat align 2 {
entry:
  %this.addr = alloca ptr, align 8
  %__off.addr = alloca i64, align 8
  store ptr %this, ptr %this.addr, align 8
  store i64 %__off, ptr %__off.addr, align 8
  %this1 = load ptr, ptr %this.addr, align 8
  %0 = load i64, ptr %__off.addr, align 8
  %_M_off = getelementptr inbounds %"class.std::fpos", ptr %this1, i32 0, i32 0
  %1 = load i64, ptr %_M_off, align 8
  %add = add nsw i64 %1, %0
  store i64 %add, ptr %_M_off, align 8
  ret ptr %this1
}

; Function Attrs: mustprogress uwtable
define internal void @_ZN8facebook5velox10serializer6presto12_GLOBAL__N_120CountingOutputStream5writeEPKcl(ptr noundef nonnull align 8 dereferenceable(40) %this, ptr noundef %0, i64 noundef %count) unnamed_addr #0 align 2 {
entry:
  %this.addr = alloca ptr, align 8
  %.addr = alloca ptr, align 8
  %count.addr = alloca i64, align 8
  store ptr %this, ptr %this.addr, align 8
  store ptr %0, ptr %.addr, align 8
  store i64 %count, ptr %count.addr, align 8
  %this1 = load ptr, ptr %this.addr, align 8
  %1 = load i64, ptr %count.addr, align 8
  %pos_ = getelementptr inbounds %"class.facebook::velox::serializer::presto::(anonymous namespace)::CountingOutputStream", ptr %this1, i32 0, i32 2
  %call = call noundef nonnull align 8 dereferenceable(16) ptr @_ZNSt4fposI11__mbstate_tEpLEl(ptr noundef nonnull align 8 dereferenceable(16) %pos_, i64 noundef %1)
  %numBytes_ = getelementptr inbounds %"class.facebook::velox::serializer::presto::(anonymous namespace)::CountingOutputStream", ptr %this1, i32 0, i32 1
  %2 = load i64, ptr %numBytes_, align 8
  %pos_2 = getelementptr inbounds %"class.facebook::velox::serializer::presto::(anonymous namespace)::CountingOutputStream", ptr %this1, i32 0, i32 2
  %call3 = call noundef i64 @_ZNKSt4fposI11__mbstate_tEcvlEv(ptr noundef nonnull align 8 dereferenceable(16) %pos_2)
  %cmp = icmp slt i64 %2, %call3
  br i1 %cmp, label %if.then, label %if.end

if.then:                                          ; preds = %entry
  %pos_4 = getelementptr inbounds %"class.facebook::velox::serializer::presto::(anonymous namespace)::CountingOutputStream", ptr %this1, i32 0, i32 2
  %call5 = call noundef i64 @_ZNKSt4fposI11__mbstate_tEcvlEv(ptr noundef nonnull align 8 dereferenceable(16) %pos_4)
  %numBytes_6 = getelementptr inbounds %"class.facebook::velox::serializer::presto::(anonymous namespace)::CountingOutputStream", ptr %this1, i32 0, i32 1
  store i64 %call5, ptr %numBytes_6, align 8
  br label %if.end

if.end:                                           ; preds = %if.then, %entry
  ret void
}