; Function Attrs: mustprogress nofree norecurse nosync nounwind willreturn memory(argmem: readwrite) uwtable
define internal void @_ZN8facebook5velox10serializer6presto12_GLOBAL__N_120CountingOutputStream5writeEPKcl(ptr nocapture noundef nonnull align 8 dereferenceable(40) %this, ptr nocapture readnone %0, i64 noundef %count) unnamed_addr #27 align 2 {
entry:
  %pos_ = getelementptr inbounds i8, ptr %this, i64 24
  %1 = load i64, ptr %pos_, align 8
  %add.i = add nsw i64 %1, %count
  store i64 %add.i, ptr %pos_, align 8
  %numBytes_ = getelementptr inbounds i8, ptr %this, i64 16
  %2 = load i64, ptr %numBytes_, align 8
  %cmp = icmp slt i64 %2, %add.i
  br i1 %cmp, label %if.then, label %if.end

if.then:                                          ; preds = %entry
  store i64 %add.i, ptr %numBytes_, align 8
  br label %if.end

if.end:                                           ; preds = %if.then, %entry
  ret void
}